; Function Attrs: nounwind uwtable
define internal i32 @pg_wc_isword(i32 noundef %0) #0 {
  %2 = icmp eq i32 %0, 95
  br i1 %2, label %pg_wc_isalnum.exit, label %3

3:                                                ; preds = %1
  %4 = load i32, ptr @pg_regex_strategy, align 4
  switch i32 %4, label %default.unreachable.i [
    i32 0, label %5
    i32 1, label %14
    i32 2, label %22
    i32 3, label %27
    i32 4, label %40
  ]

5:                                                ; preds = %3
  %6 = icmp ult i32 %0, 128
  br i1 %6, label %7, label %pg_wc_isalnum.exit

7:                                                ; preds = %5
  %8 = zext nneg i32 %0 to i64
  %9 = getelementptr inbounds nuw [128 x i8], ptr @pg_char_properties, i64 0, i64 %8
  %10 = load i8, ptr %9, align 1
  %11 = and i8 %10, 3
  %12 = icmp ne i8 %11, 0
  %13 = zext i1 %12 to i32
  br label %pg_wc_isalnum.exit

14:                                               ; preds = %3
  %15 = load ptr, ptr @pg_regex_locale, align 8
  %16 = getelementptr inbounds nuw i8, ptr %15, i64 24
  %17 = load i8, ptr %16, align 8, !range !7, !noundef !8
  %18 = trunc nuw i8 %17 to i1
  %19 = xor i1 %18, true
  %20 = tail call zeroext i1 @pg_u_isalnum(i32 noundef %0, i1 noundef zeroext %19) #20
  %21 = zext i1 %20 to i32
  br label %pg_wc_isalnum.exit

22:                                               ; preds = %3
  %23 = load ptr, ptr @pg_regex_locale, align 8
  %24 = getelementptr inbounds nuw i8, ptr %23, i64 16
  %25 = load ptr, ptr %24, align 8
  %26 = tail call i32 @iswalnum_l(i32 noundef %0, ptr noundef %25) #20
  br label %pg_wc_isalnum.exit

27:                                               ; preds = %3
  %28 = icmp ult i32 %0, 256
  br i1 %28, label %29, label %pg_wc_isalnum.exit

29:                                               ; preds = %27
  %30 = load ptr, ptr @pg_regex_locale, align 8
  %31 = getelementptr inbounds nuw i8, ptr %30, i64 16
  %32 = load ptr, ptr %31, align 8
  %33 = getelementptr inbounds nuw i8, ptr %32, i64 104
  %34 = load ptr, ptr %33, align 8
  %35 = zext nneg i32 %0 to i64
  %36 = getelementptr inbounds nuw i16, ptr %34, i64 %35
  %37 = load i16, ptr %36, align 2
  %38 = lshr i16 %37, 3
  %.lobit.i = and i16 %38, 1
  %39 = zext nneg i16 %.lobit.i to i32
  br label %pg_wc_isalnum.exit

40:                                               ; preds = %3
  %41 = tail call signext i8 @u_isalnum_70(i32 noundef %0) #20
  %42 = sext i8 %41 to i32
  br label %pg_wc_isalnum.exit

default.unreachable.i:                            ; preds = %3
  unreachable

pg_wc_isalnum.exit:                               ; preds = %40, %29, %27, %22, %14, %7, %5, %1
  %.0 = phi i32 [ 1, %1 ], [ %42, %40 ], [ %26, %22 ], [ %21, %14 ], [ 0, %5 ], [ %13, %7 ], [ 0, %27 ], [ %39, %29 ]
  ret i32 %.0
}